(dp0
S'exclusive'
p1
(dp2
S'lemma'
p3
S'exclusive'
p4
sS'label'
p5
S'RG'
p6
ssS'incluso'
p7
(dp8
g3
S'incluso'
p9
sg5
S'RG'
p10
ssS'incontinenti'
p11
(dp12
g3
S'incontinenti'
p13
sg5
S'RG'
p14
ssS'reci\xc3\xa9n'
p15
(dp16
g3
S'reci\xc3\xa9n'
p17
sg5
S'RG'
p18
ssS'exprofeso'
p19
(dp20
g3
S'exprofeso'
p21
sg5
S'RG'
p22
ssS'mientras'
p23
(dp24
g3
S'mientras'
p25
sg5
S'RG'
p26
ssS'menos'
p27
(dp28
g3
S'menos'
p29
sg5
S'RG'
p30
ssS'ma\xc3\xb1ana'
p31
(dp32
g3
S'ma\xc3\xb1ana'
p33
sg5
S'RG'
p34
ssS'trasanteanoche'
p35
(dp36
g3
S'trasanteanoche'
p37
sg5
S'RG'
p38
ssS'viceversa'
p39
(dp40
g3
S'viceversa'
p41
sg5
S'RG'
p42
ssS's\xc3\xad'
p43
(dp44
g3
S's\xc3\xad'
p45
sg5
S'RG'
p46
ssS'ni'
p47
(dp48
g3
S'ni'
p49
sg5
S'RG'
p50
ssS'antes'
p51
(dp52
g3
S'antes'
p53
sg5
S'RG'
p54
ssS'detr\xc3\xa1s'
p55
(dp56
g3
S'detr\xc3\xa1s'
p57
sg5
S'RG'
p58
ssS'pronto'
p59
(dp60
g3
S'pronto'
p61
sg5
S'RG'
p62
ssS'acull\xc3\xa1'
p63
(dp64
g3
S'acull\xc3\xa1'
p65
sg5
S'RG'
p66
ssS'aun'
p67
(dp68
g3
S'aun'
p69
sg5
S'RG'
p70
ssS'arriba'
p71
(dp72
g3
S'arriba'
p73
sg5
S'RG'
p74
ssS'ayer'
p75
(dp76
g3
S'ayer'
p77
sg5
S'RG'
p78
ssS'otros\xc3\xad'
p79
(dp80
g3
S'otros\xc3\xad'
p81
sg5
S'RG'
p82
ssS'chiticallando'
p83
(dp84
g3
S'chiticallando'
p85
sg5
S'RG'
p86
ssS'antarca'
p87
(dp88
g3
S'antarca'
p89
sg5
S'RG'
p90
ssS'asimismo'
p91
(dp92
g3
S'asimismo'
p93
sg5
S'RG'
p94
ssS'ya'
p95
(dp96
g3
S'ya'
p97
sg5
S'RG'
p98
ssS'nada'
p99
(dp100
g3
S'nada'
p101
sg5
S'RG'
p102
ssS'anteanteayer'
p103
(dp104
g3
S'anteanteayer'
p105
sg5
S'RG'
p106
ssS'aposta'
p107
(dp108
g3
S'aposta'
p109
sg5
S'RG'
p110
ssS'anted\xc3\xada'
p111
(dp112
g3
S'anted\xc3\xada'
p113
sg5
S'RG'
p114
ssS'caput'
p115
(dp116
g3
S'caput'
p117
sg5
S'RG'
p118
ssS'tanto'
p119
(dp120
g3
S'tanto'
p121
sg5
S'RG'
p122
ssS'enmedio'
p123
(dp124
g3
S'enmedio'
p125
sg5
S'RG'
p126
ssS'a\xc3\xban'
p127
(dp128
g3
S'aun'
p129
sg5
S'RG'
p130
ssS'justo'
p131
(dp132
g3
S'justo'
p133
sg5
S'RG'
p134
ssS'peor'
p135
(dp136
g3
S'peor'
p137
sg5
S'RG'
p138
ssS'cuasi'
p139
(dp140
g3
S'cuasi'
p141
sg5
S'RG'
p142
ssS'adunia'
p143
(dp144
g3
S'adunia'
p145
sg5
S'RG'
p146
ssS'm\xc3\xa1s'
p147
(dp148
g3
S'm\xc3\xa1s'
p149
sg5
S'RG'
p150
ssS'oga\xc3\xb1o'
p151
(dp152
g3
S'oga\xc3\xb1o'
p153
sg5
S'RG'
p154
ssS'sic'
p155
(dp156
g3
S'sic'
p157
sg5
S'RG'
p158
ssS'intramuros'
p159
(dp160
g3
S'intramuros'
p161
sg5
S'RG'
p162
ssS'asina'
p163
(dp164
g3
S'as\xc3\xad'
p165
sg5
S'RG'
p166
ssS'nom\xc3\xa1s'
p167
(dp168
g3
S'nom\xc3\xa1s'
p169
sg5
S'RG'
p170
ssS'anteayer'
p171
(dp172
g3
S'anteayer'
p173
sg5
S'RG'
p174
ssS'idem'
p175
(dp176
g3
S'\xc3\xaddem'
p177
sg5
S'RG'
p178
ssS'fuera'
p179
(dp180
g3
S'fuera'
p181
sg5
S'RG'
p182
ssS'cerca'
p183
(dp184
g3
S'cerca'
p185
sg5
S'RG'
p186
ssS'tambi\xc3\xa9n'
p187
(dp188
g3
S'tambi\xc3\xa9n'
p189
sg5
S'RG'
p190
ssS'atr\xc3\xa1s'
p191
(dp192
g3
S'atr\xc3\xa1s'
p193
sg5
S'RG'
p194
ssS'infraganti'
p195
(dp196
g3
S'infraganti'
p197
sg5
S'RG'
p198
ssS'ans\xc3\xad'
p199
(dp200
g3
S'ans\xc3\xad'
p201
sg5
S'RG'
p202
ssS'ib\xc3\xaddem'
p203
(dp204
g3
S'ibidem'
p205
sg5
S'RG'
p206
ssS'defuera'
p207
(dp208
g3
S'defuera'
p209
sg5
S'RG'
p210
ssS'ter'
p211
(dp212
g3
S'ter'
p213
sg5
S'RG'
p214
ssS'todo'
p215
(dp216
g3
S'todo'
p217
sg5
S'RG'
p218
ssS'quiz\xc3\xa1'
p219
(dp220
g3
S'quiz\xc3\xa1'
p221
sg5
S'RG'
p222
ssS'noramala'
p223
(dp224
g3
S'enhoramala'
p225
sg5
S'RG'
p226
ssS'norabuena'
p227
(dp228
g3
S'enhorabuena'
p229
sg5
S'RG'
p230
ssS'pues'
p231
(dp232
g3
S'pues'
p233
sg5
S'RG'
p234
ssS'nunca'
p235
(dp236
g3
S'nunca'
p237
sg5
S'RG'
p238
ssS'primeramente'
p239
(dp240
g3
S'primeramente'
p241
sg5
S'RG'
p242
ssS'muy'
p243
(dp244
g3
S'muy'
p245
sg5
S'RG'
p246
ssS'allende'
p247
(dp248
g3
S'allende'
p249
sg5
S'RG'
p250
ssS'as\xc3\xad'
p251
(dp252
g3
S'as\xc3\xad'
p253
sg5
S'RG'
p254
ssS'poco'
p255
(dp256
g3
S'poco'
p257
sg5
S'RG'
p258
ssS'bien'
p259
(dp260
g3
S'bien'
p261
sg5
S'RG'
p262
ssS'entretanto'
p263
(dp264
g3
S'entretanto'
p265
sg5
S'RG'
p266
ssS'offline'
p267
(dp268
g3
S'offline'
p269
sg5
S'RG'
p270
ssS'otrora'
p271
(dp272
g3
S'otrora'
p273
sg5
S'RG'
p274
ssS'solo'
p275
(dp276
g3
S'solo'
p277
sg5
S'RG'
p278
ssS'ibidem'
p279
(dp280
g3
S'ibidem'
p281
sg5
S'RG'
p282
ssS'encima'
p283
(dp284
g3
S'encima'
p285
sg5
S'RG'
p286
ssS'frente'
p287
(dp288
g3
S'frente'
p289
sg5
S'RG'
p290
ssS'despu\xc3\xa9s'
p291
(dp292
g3
S'despu\xc3\xa9s'
p293
sg5
S'RG'
p294
ssS'trasanteayer'
p295
(dp296
g3
S'trasanteayer'
p297
sg5
S'RG'
p298
ssS'entonces'
p299
(dp300
g3
S'entonces'
p301
sg5
S'RG'
p302
ssS'largo'
p303
(dp304
g3
S'largo'
p305
sg5
S'RG'
p306
ssS'adrede'
p307
(dp308
g3
S'adrede'
p309
sg5
S'RG'
p310
ssS'luego'
p311
(dp312
g3
S'luego'
p313
sg5
S'RG'
p314
ssS'ayuso'
p315
(dp316
g3
S'ayuso'
p317
sg5
S'RG'
p318
ssS'chano'
p319
(dp320
g3
S'chano'
p321
sg5
S'RG'
p322
ssS'algo'
p323
(dp324
g3
S'algo'
p325
sg5
S'RG'
p326
ssS'mismo'
p327
(dp328
g3
S'mismo'
p329
sg5
S'RG'
p330
ssS'ojal\xc3\xa1'
p331
(dp332
g3
S'ojal\xc3\xa1'
p333
sg5
S'RG'
p334
ssS'claro'
p335
(dp336
g3
S'claro'
p337
sg5
S'RG'
p338
ssS'kaputt'
p339
(dp340
g3
S'caput'
p341
sg5
S'RG'
p342
ssS'enhoramala'
p343
(dp344
g3
S'enhoramala'
p345
sg5
S'RG'
p346
ssS'trasma\xc3\xb1ana'
p347
(dp348
g3
S'trasma\xc3\xb1ana'
p349
sg5
S'RG'
p350
ssS'sobremanera'
p351
(dp352
g3
S'sobremanera'
p353
sg5
S'RG'
p354
ssS'off-line'
p355
(dp356
g3
S'offline'
p357
sg5
S'RG'
p358
ssS'mucho'
p359
(dp360
g3
S'mucho'
p361
sg5
S'RG'
p362
ssS'enhorabuena'
p363
(dp364
g3
S'enhorabuena'
p365
sg5
S'RG'
p366
ssS'p\xc3\xa1ssim'
p367
(dp368
g3
S'p\xc3\xa1ssim'
p369
sg5
S'RG'
p370
ssS'anta\xc3\xb1o'
p371
(dp372
g3
S'anta\xc3\xb1o'
p373
sg5
S'RG'
p374
ssS'igual'
p375
(dp376
g3
S'igual'
p377
sg5
S'RG'
p378
ssS'mere'
p379
(dp380
g3
S'mere'
p381
sg5
S'RG'
p382
ssS'tarde'
p383
(dp384
g3
S'tarde'
p385
sg5
S'RG'
p386
ssS'siempre'
p387
(dp388
g3
S'siempre'
p389
sg5
S'RG'
p390
ssS'endenantes'
p391
(dp392
g3
S'endenantes'
p393
sg5
S'RG'
p394
ssS'all\xc3\xa1'
p395
(dp396
g3
S'all\xc3\xa1'
p397
sg5
S'RG'
p398
ssS'all\xc3\xad'
p399
(dp400
g3
S'all\xc3\xad'
p401
sg5
S'RG'
p402
ssS'ac\xc3\xa1'
p403
(dp404
g3
S'ac\xc3\xa1'
p405
sg5
S'RG'
p406
ssS'enseguida'
p407
(dp408
g3
S'enseguida'
p409
sg5
S'RG'
p410
ssS'alrededor'
p411
(dp412
g3
S'alrededor'
p413
sg5
S'RG'
p414
ssS'adelante'
p415
(dp416
g3
S'adelante'
p417
sg5
S'RG'
p418
ssS'enfrente'
p419
(dp420
g3
S'enfrente'
p421
sg5
S'RG'
p422
ssS'otra\xc3\xb1o'
p423
(dp424
g3
S'otra\xc3\xb1o'
p425
sg5
S'RG'
p426
ssS'\xc3\xaddem'
p427
(dp428
g3
S'\xc3\xaddem'
p429
sg5
S'RG'
p430
ssS'jam\xc3\xa1s'
p431
(dp432
g3
S'jam\xc3\xa1s'
p433
sg5
S'RG'
p434
ssS'ajorro'
p435
(dp436
g3
S'ajorro'
p437
sg5
S'RG'
p438
ssS'aindam\xc3\xa1is'
p439
(dp440
g3
S'adem\xc3\xa1s'
p441
sg5
S'RG'
p442
ssS'antier'
p443
(dp444
g3
S'antier'
p445
sg5
S'RG'
p446
ssS'talvez'
p447
(dp448
g3
S'talvez'
p449
sg5
S'RG'
p450
ssS'abajo'
p451
(dp452
g3
S'abajo'
p453
sg5
S'RG'
p454
ssS'deprisa'
p455
(dp456
g3
S'deprisa'
p457
sg5
S'RG'
p458
ssS'seg\xc3\xban'
p459
(dp460
g3
S'seg\xc3\xban'
p461
sg5
S'RG'
p462
ssS'todav\xc3\xada'
p463
(dp464
g3
S'todav\xc3\xada'
p465
sg5
S'RG'
p466
ssS'cuanto'
p467
(dp468
g3
S'cuanto'
p469
sg5
S'RG'
p470
ssS'mejor'
p471
(dp472
g3
S'mejor'
p473
sg5
S'RG'
p474
ssS'adondequiera'
p475
(dp476
g3
S'adondequiera'
p477
sg5
S'RG'
p478
ssS'casi'
p479
(dp480
g3
S'casi'
p481
sg5
S'RG'
p482
ssS'on-line'
p483
(dp484
g3
S'online'
p485
sg5
S'RG'
p486
ssS'hoga\xc3\xb1o'
p487
(dp488
g3
S'hoga\xc3\xb1o'
p489
sg5
S'RG'
p490
ssS'cuantim\xc3\xa1s'
p491
(dp492
g3
S'cuantim\xc3\xa1s'
p493
sg5
S'RG'
p494
ssS'siquiera'
p495
(dp496
g3
S'siquiera'
p497
sg5
S'RG'
p498
ssS'debajo'
p499
(dp500
g3
S'debajo'
p501
sg5
S'RG'
p502
ssS'as\xc3\xadn'
p503
(dp504
g3
S'as\xc3\xad'
p505
sg5
S'RG'
p506
ssS'arredro'
p507
(dp508
g3
S'arredro'
p509
sg5
S'RG'
p510
ssS'tampoco'
p511
(dp512
g3
S'tampoco'
p513
sg5
S'RG'
p514
ssS'conforme'
p515
(dp516
g3
S'conforme'
p517
sg5
S'RG'
p518
ssS'seguro'
p519
(dp520
g3
S'seguro'
p521
sg5
S'RG'
p522
ssS'extramuros'
p523
(dp524
g3
S'extramuros'
p525
sg5
S'RG'
p526
ssS'inclusive'
p527
(dp528
g3
S'inclusive'
p529
sg5
S'RG'
p530
ssS'ahora'
p531
(dp532
g3
S'ahora'
p533
sg5
S'RG'
p534
ssS'suso'
p535
(dp536
g3
S'suso'
p537
sg5
S'RG'
p538
ssS'm\xc3\xa1xime'
p539
(dp540
g3
S'm\xc3\xa1xime'
p541
sg5
S'RG'
p542
ssS'dondequiera'
p543
(dp544
g3
S'dondequiera'
p545
sg5
S'RG'
p546
ssS'tan'
p547
(dp548
g3
S'tan'
p549
sg5
S'RG'
p550
ssS'bastante'
p551
(dp552
g3
S'bastante'
p553
sg5
S'RG'
p554
ssS'hasta'
p555
(dp556
g3
S'hasta'
p557
sg5
S'RG'
p558
ssS'gratis'
p559
(dp560
g3
S'gratis'
p561
sg5
S'RG'
p562
ssS'medio'
p563
(dp564
g3
S'medio'
p565
sg5
S'RG'
p566
ssS'anteanoche'
p567
(dp568
g3
S'anteanoche'
p569
sg5
S'RG'
p570
ssS'lejos'
p571
(dp572
g3
S'lejos'
p573
sg5
S'RG'
p574
ssS'verbigracia'
p575
(dp576
g3
S'verbigracia'
p577
sg5
S'RG'
p578
ssS'aquende'
p579
(dp580
g3
S'aquende'
p581
sg5
S'RG'
p582
ssS'supra'
p583
(dp584
g3
S'supra'
p585
sg5
S'RG'
p586
ssS'anteanteanoche'
p587
(dp588
g3
S'anteanteanoche'
p589
sg5
S'RG'
p590
ssS'comoquiera'
p591
(dp592
g3
S'comoquiera'
p593
sg5
S'RG'
p594
ssS'antenoche'
p595
(dp596
g3
S'antenoche'
p597
sg5
S'RG'
p598
ssS'cuan'
p599
(dp600
g3
S'cuan'
p601
sg5
S'RG'
p602
ssS'online'
p603
(dp604
g3
S'online'
p605
sg5
S'RG'
p606
ssS'alerta'
p607
(dp608
g3
S'alerta'
p609
sg5
S'RG'
p610
ssS'requetebi\xc3\xa9n'
p611
(dp612
g3
S'requetebi\xc3\xa9n'
p613
sg5
S'RG'
p614
ssS'hoy'
p615
(dp616
g3
S'hoy'
p617
sg5
S'RG'
p618
ssS'quiz\xc3\xa1s'
p619
(dp620
g3
S'quiz\xc3\xa1s'
p621
sg5
S'RG'
p622
ssS'adem\xc3\xa1s'
p623
(dp624
g3
S'adem\xc3\xa1s'
p625
sg5
S'RG'
p626
ssS'junto'
p627
(dp628
g3
S'junto'
p629
sg5
S'RG'
p630
ssS'temprano'
p631
(dp632
g3
S'temprano'
p633
sg5
S'RG'
p634
ssS'ah\xc3\xad'
p635
(dp636
g3
S'ah\xc3\xad'
p637
sg5
S'RG'
p638
ssS'sobremodo'
p639
(dp640
g3
S'sobremodo'
p641
sg5
S'RG'
p642
ssS'delante'
p643
(dp644
g3
S'delante'
p645
sg5
S'RG'
p646
ssS'demasiado'
p647
(dp648
g3
S'demasiado'
p649
sg5
S'RG'
p650
ssS'avanti'
p651
(dp652
g3
S'avante'
p653
sg5
S'RG'
p654
ssS'apenas'
p655
(dp656
g3
S'apenas'
p657
sg5
S'RG'
p658
ssS'siquier'
p659
(dp660
g3
S'siquiera'
p661
sg5
S'RG'
p662
ssS'acaso'
p663
(dp664
g3
S'acaso'
p665
sg5
S'RG'
p666
ssS'avante'
p667
(dp668
g3
S'avante'
p669
sg5
S'RG'
p670
ssS'mal'
p671
(dp672
g3
S'mal'
p673
sg5
S'RG'
p674
ssS'afuera'
p675
(dp676
g3
S'afuera'
p677
sg5
S'RG'
p678
ssS'nequ\xc3\xa1quam'
p679
(dp680
g3
S'nequ\xc3\xa1quam'
p681
sg5
S'RG'
p682
ssS'adentro'
p683
(dp684
g3
S'adentro'
p685
sg5
S'RG'
p686
ssS'alderredor'
p687
(dp688
g3
S'alrededor'
p689
sg5
S'RG'
p690
ssS'doquiera'
p691
(dp692
g3
S'doquier'
p693
sg5
S'RG'
p694
ssS'aprisa'
p695
(dp696
g3
S'aprisa'
p697
sg5
S'RG'
p698
ssS'doquier'
p699
(dp700
g3
S'doquier'
p701
sg5
S'RG'
p702
ssS'no'
p703
(dp704
g3
S'no'
p705
sg5
S'RN'
p706
ssS'aparte'
p707
(dp708
g3
S'aparte'
p709
sg5
S'RG'
p710
ssS'dentro'
p711
(dp712
g3
S'dentro'
p713
sg5
S'RG'
p714
ssS'anoche'
p715
(dp716
g3
S'anoche'
p717
sg5
S'RG'
p718
ssS'despacio'
p719
(dp720
g3
S'despacio'
p721
sg5
S'RG'
p722
ssS'aqu\xc3\xad'
p723
(dp724
g3
S'aqu\xc3\xad'
p725
sg5
S'RG'
p726
ssS'harto'
p727
(dp728
g3
S'harto'
p729
sg5
S'RG'
p730
ssS's\xc3\xb3lo'
p731
(dp732
g3
S's\xc3\xb3lo'
p733
sg5
S'RG'
p734
ssS'mocosuena'
p735
(dp736
g3
S'mocosuena'
p737
sg5
S'RG'
p738
ssS'primero'
p739
(dp740
g3
S'primero'
p741
sg5
S'RG'
p742
ss.