(dp0
S'cuyas'
p1
(dp2
S'lemma'
p3
S'cuyo'
p4
sS'label'
p5
S'PR0FP000'
p6
ssS'cu\xc3\xa1l'
p7
(dp8
g3
S'cu\xc3\xa1l'
p9
sg5
S'PT0CS000'
p10
ssS'suyas'
p11
(dp12
g3
S'suyo'
p13
sg5
S'PX3FP0C0'
p14
ssS'aquellas'
p15
(dp16
g3
S'aquel'
p17
sg5
S'PD0FP000'
p18
ssS'mientras'
p19
(dp20
g3
S'mientras'
p21
sg5
S'CS'
p22
ssS'hacia'
p23
(dp24
g3
S'hacia'
p25
sg5
S'SPS00'
p26
ssS'incluso'
p27
(dp28
g3
S'incluso'
p29
sg5
S'CS'
p30
ssS'cu\xc3\xa1les'
p31
(dp32
g3
S'cu\xc3\xa1l'
p33
sg5
S'PT0CP000'
p34
ssS'ambas'
p35
(dp36
g3
S'ambos'
p37
sg5
S'PI0FP000'
p38
ssS'nuestro'
p39
(dp40
g3
S'nuestro'
p41
sg5
S'PX1NS0P0'
p42
ssS'otro'
p43
(dp44
g3
S'otro'
p45
sg5
S'PI0MS000'
p46
ssS'le'
p47
(dp48
g3
S'le'
p49
sg5
S'PP3CSD00'
p50
ssS'estotras'
p51
(dp52
g3
S'estotro'
p53
sg5
S'PD0FP000'
p54
ssS'la'
p55
(dp56
g3
S'lo'
p57
sg5
S'PP3FSA00'
p58
ssS'cuanto'
p59
(dp60
g3
S'cuanto'
p61
sg5
S'PR0MS000'
p62
ssS'tu'
p63
(dp64
g3
S'tu'
p65
sg5
S'DP2CSS'
p66
ssS'ese'
p67
(dp68
g3
S'ese'
p69
sg5
S'PD0MS000'
p70
ssS'otra'
p71
(dp72
g3
S'otro'
p73
sg5
S'PI0FS000'
p74
ssS'aun'
p75
(dp76
g3
S'aun'
p77
sg5
S'CS'
p78
ssS'nadie'
p79
(dp80
g3
S'nadie'
p81
sg5
S'PI0CS000'
p82
ssS'nuestros'
p83
(dp84
g3
S'nuestro'
p85
sg5
S'PX1MP0P0'
p86
ssS'\xc3\xa9sos'
p87
(dp88
g3
S'ese'
p89
sg5
S'PD0MP000'
p90
ssS'semejante'
p91
(dp92
g3
S'semejante'
p93
sg5
S'DD0CS0'
p94
ssS'aqu\xc3\xa9llas'
p95
(dp96
g3
S'aquel'
p97
sg5
S'PD0FP000'
p98
ssS'ti'
p99
(dp100
g3
S'ti'
p101
sg5
S'PP2CSO00'
p102
ssS'bastantes'
p103
(dp104
g3
S'bastante'
p105
sg5
S'PI0CP000'
p106
ssS'naide'
p107
(dp108
g3
S'nadie'
p109
sg5
S'PI0CS000'
p110
ssS'\xc3\xa9sa'
p111
(dp112
g3
S'ese'
p113
sg5
S'PD0FS000'
p114
ssS'ergo'
p115
(dp116
g3
S'ergo'
p117
sg5
S'CS'
p118
ssS'vuestros'
p119
(dp120
g3
S'vuestro'
p121
sg5
S'PX2MP0P0'
p122
ssS'estas'
p123
(dp124
g3
S'este'
p125
sg5
S'PD0FP000'
p126
ssS'porque'
p127
(dp128
g3
S'porque'
p129
sg5
S'CS'
p130
ssS'cuales'
p131
(dp132
g3
S'cual'
p133
sg5
S'PR0CP000'
p134
ssS'mismos'
p135
(dp136
g3
S'mismo'
p137
sg5
S'PI0MP000'
p138
ssS'esotras'
p139
(dp140
g3
S'esotro'
p141
sg5
S'PD0FP000'
p142
ssS'yo'
p143
(dp144
g3
S'yo'
p145
sg5
S'PP1CSN00'
p146
ssS'ya'
p147
(dp148
g3
S'ya'
p149
sg5
S'CS'
p150
ssS'por'
p151
(dp152
g3
S'por'
p153
sg5
S'SPS00'
p154
ssS'nada'
p155
(dp156
g3
S'nada'
p157
sg5
S'PI0CS000'
p158
ssS'de'
p159
(dp160
g3
S'de'
p161
sg5
S'SPS00'
p162
ssS'sus'
p163
(dp164
g3
S'su'
p165
sg5
S'DP3CP0'
p166
ssS'tuyos'
p167
(dp168
g3
S'tuyo'
p169
sg5
S'PX2MP0S0'
p170
ssS'consigo'
p171
(dp172
g3
S'consigo'
p173
sg5
S'PP3CNO00'
p174
ssS'algunos'
p175
(dp176
g3
S'alguno'
p177
sg5
S'PI0MP000'
p178
ssS'tanto'
p179
(dp180
g3
S'tanto'
p181
sg5
S'PI0MS000'
p182
ssS'tanta'
p183
(dp184
g3
S'tanto'
p185
sg5
S'PI0FS000'
p186
ssS'mucho'
p187
(dp188
g3
S'mucho'
p189
sg5
S'PI0MS000'
p190
ssS'nos'
p191
(dp192
g3
S'nos'
p193
sg5
S'PP1CP000'
p194
ssS'tantas'
p195
(dp196
g3
S'tanto'
p197
sg5
S'PI0FP000'
p198
ssS'demasiadas'
p199
(dp200
g3
S'demasiado'
p201
sg5
S'PI0FP000'
p202
ssS'\xc3\xa9stas'
p203
(dp204
g3
S'este'
p205
sg5
S'PD0FP000'
p206
ssS'una'
p207
(dp208
g3
S'uno'
p209
sg5
S'PI0FS000'
p210
ssS'alg\xc3\xban'
p211
(dp212
g3
S'alguno'
p213
sg5
S'DI0MS0'
p214
ssS'm\xc3\xadas'
p215
(dp216
g3
S'm\xc3\xado'
p217
sg5
S'PX1FP0S0'
p218
ssS'medias'
p219
(dp220
g3
S'medio'
p221
sg5
S'PI0FP000'
p222
ssS'medios'
p223
(dp224
g3
S'medio'
p225
sg5
S'PI0MP000'
p226
ssS'desde'
p227
(dp228
g3
S'desde'
p229
sg5
S'SPS00'
p230
ssS'\xc3\xa9sas'
p231
(dp232
g3
S'ese'
p233
sg5
S'PD0FP000'
p234
ssS'tras'
p235
(dp236
g3
S'tras'
p237
sg5
S'SPS00'
p238
ssS'muchas'
p239
(dp240
g3
S'mucho'
p241
sg5
S'PI0FP000'
p242
ssS'ninguno'
p243
(dp244
g3
S'ninguno'
p245
sg5
S'PI0MS000'
p246
ssS'el'
p247
(dp248
g3
S'el'
p249
sg5
S'DA0MS0'
p250
ssS'en'
p251
(dp252
g3
S'en'
p253
sg5
S'SPS00'
p254
ssS'esos'
p255
(dp256
g3
S'ese'
p257
sg5
S'PD0MP000'
p258
ssS'pocas'
p259
(dp260
g3
S'poco'
p261
sg5
S'PI0FP000'
p262
ssS'cuantas'
p263
(dp264
g3
S'cuanto'
p265
sg5
S'PR0FP000'
p266
ssS'vosotros'
p267
(dp268
g3
S'vosotros'
p269
sg5
S'PP2MP000'
p270
ssS'pocos'
p271
(dp272
g3
S'poco'
p273
sg5
S'PI0MP000'
p274
ssS'cuyos'
p275
(dp276
g3
S'cuyo'
p277
sg5
S'PR0MP000'
p278
ssS'cabe'
p279
(dp280
g3
S'cabe'
p281
sg5
S'SPS00'
p282
ssS'toda'
p283
(dp284
g3
S'todo'
p285
sg5
S'PI0FS000'
p286
ssS'sea'
p287
(dp288
g3
S'sea'
p289
sg5
S'CS'
p290
ssS'unos'
p291
(dp292
g3
S'uno'
p293
sg5
S'PI0MP000'
p294
ssS'versus'
p295
(dp296
g3
S'versus'
p297
sg5
S'SPS00'
p298
ssS'ellas'
p299
(dp300
g3
S'ellos'
p301
sg5
S'PP3FP000'
p302
ssS'otros'
p303
(dp304
g3
S'otro'
p305
sg5
S'PI0MP000'
p306
ssS'estos'
p307
(dp308
g3
S'este'
p309
sg5
S'PD0MP000'
p310
ssS'pues'
p311
(dp312
g3
S'pues'
p313
sg5
S'CS'
p314
ssS'm\xc3\xado'
p315
(dp316
g3
S'm\xc3\xado'
p317
sg5
S'PX1NS0S0'
p318
ssS'd\xc3\xb3nde'
p319
(dp320
g3
S'd\xc3\xb3nde'
p321
sg5
S'PT000000'
p322
ssS'tuyo'
p323
(dp324
g3
S'tuyo'
p325
sg5
S'PX2NS0S0'
p326
ssS'algunas'
p327
(dp328
g3
S'alguno'
p329
sg5
S'PI0FP000'
p330
ssS'poco'
p331
(dp332
g3
S'poco'
p333
sg5
S'PI0MS000'
p334
ssS'bien'
p335
(dp336
g3
S'bien'
p337
sg5
S'CC'
p338
ssS'ninguna'
p339
(dp340
g3
S'ninguno'
p341
sg5
S'PI0FS000'
p342
ssS'c\xc3\xb3mo'
p343
(dp344
g3
S'c\xc3\xb3mo'
p345
sg5
S'PT000000'
p346
ssS'esotro'
p347
(dp348
g3
S'esotro'
p349
sg5
S'PD0MS000'
p350
ssS'esa'
p351
(dp352
g3
S'ese'
p353
sg5
S'PD0FS000'
p354
ssS'estotros'
p355
(dp356
g3
S'estotro'
p357
sg5
S'PD0MP000'
p358
ssS'eso'
p359
(dp360
g3
S'ese'
p361
sg5
S'PD0NS000'
p362
ssS'contigo'
p363
(dp364
g3
S'contigo'
p365
sg5
S'PP2CSO00'
p366
ssS'alguien'
p367
(dp368
g3
S'alguien'
p369
sg5
S'PI0CS000'
p370
ssS'poca'
p371
(dp372
g3
S'poco'
p373
sg5
S'PI0FS000'
p374
ssS's\xc3\xad'
p375
(dp376
g3
S's\xc3\xad'
p377
sg5
S'PP3CNO00'
p378
ssS'tus'
p379
(dp380
g3
S'tu'
p381
sg5
S'DP2CPS'
p382
ssS'varias'
p383
(dp384
g3
S'varios'
p385
sg5
S'PI0FP000'
p386
ssS'semejantes'
p387
(dp388
g3
S'semejante'
p389
sg5
S'DD0CP0'
p390
ssS'sino'
p391
(dp392
g3
S'sino'
p393
sg5
S'CC'
p394
ssS'm\xc3\xados'
p395
(dp396
g3
S'm\xc3\xado'
p397
sg5
S'PX1MP0S0'
p398
ssS'les'
p399
(dp400
g3
S'le'
p401
sg5
S'PP3CPD00'
p402
ssS'aquello'
p403
(dp404
g3
S'aquel'
p405
sg5
S'PD0NS000'
p406
ssS'como'
p407
(dp408
g3
S'como'
p409
sg5
S'SPS00'
p410
ssS'nosotras'
p411
(dp412
g3
S'nosotros'
p413
sg5
S'PP1FP000'
p414
ssS'aquella'
p415
(dp416
g3
S'aquel'
p417
sg5
S'PD0FS000'
p418
ssS'aqu\xc3\xa9l'
p419
(dp420
g3
S'aquel'
p421
sg5
S'PD0MS000'
p422
ssS'aunque'
p423
(dp424
g3
S'aunque'
p425
sg5
S'CC'
p426
ssS'\xc3\xaddem'
p427
(dp428
g3
S'\xc3\xaddem'
p429
sg5
S'P0000000'
p430
ssS'vosotras'
p431
(dp432
g3
S'vosotros'
p433
sg5
S'PP2FP000'
p434
ssS'm\xc3\xad'
p435
(dp436
g3
S'm\xc3\xad'
p437
sg5
S'PP1CSO00'
p438
ssS'vuestra'
p439
(dp440
g3
S'vuestro'
p441
sg5
S'PX2FS0P0'
p442
ssS'luego'
p443
(dp444
g3
S'luego'
p445
sg5
S'CS'
p446
ssS'ning\xc3\xban'
p447
(dp448
g3
S'ninguno'
p449
sg5
S'DI0MS0'
p450
ssS'otras'
p451
(dp452
g3
S'otro'
p453
sg5
S'PI0FP000'
p454
ssS'conmigo'
p455
(dp456
g3
S'conmigo'
p457
sg5
S'PP1CSO00'
p458
ssS'quienes'
p459
(dp460
g3
S'quien'
p461
sg5
S'PR0CP000'
p462
ssS'\xc3\xa9stos'
p463
(dp464
g3
S'este'
p465
sg5
S'PD0MP000'
p466
ssS'o'
p467
(dp468
g3
g467
sg5
S'CC'
p469
ssS'etc'
p470
(dp471
g3
S'etc\xc3\xa9tera'
p472
sg5
S'Fs'
p473
ssS'nosotros'
p474
(dp475
g3
S'nosotros'
p476
sg5
S'PP1MP000'
p477
ssS'algo'
p478
(dp479
g3
S'algo'
p480
sg5
S'PI0CS000'
p481
ssS'misma'
p482
(dp483
g3
S'mismo'
p484
sg5
S'PI0FS000'
p485
ssS'lo'
p486
(dp487
g3
S'lo'
p488
sg5
S'PP3MSA00'
p489
ssS'mismo'
p490
(dp491
g3
S'mismo'
p492
sg5
S'PI0MS000'
p493
ssS'que'
p494
(dp495
g3
S'que'
p496
sg5
S'PR0CN000'
p497
ssS'cuantos'
p498
(dp499
g3
S'cuanto'
p500
sg5
S'PR0MP000'
p501
ssS'os'
p502
(dp503
g3
S'os'
p504
sg5
S'PP2CP000'
p505
ssS'con'
p506
(dp507
g3
S'con'
p508
sg5
S'SPS00'
p509
ssS'mucha'
p510
(dp511
g3
S'mucho'
p512
sg5
S'PI0FS000'
p513
ssS'tantos'
p514
(dp515
g3
S'tanto'
p516
sg5
S'PI0MP000'
p517
ssS'idem'
p518
(dp519
g3
S'\xc3\xaddem'
p520
sg5
S'P0000000'
p521
ssS'cuando'
p522
(dp523
g3
S'cuando'
p524
sg5
S'PR000000'
p525
ssS'durante'
p526
(dp527
g3
S'durante'
p528
sg5
S'SPS00'
p529
ssS'\xc3\xa9l'
p530
(dp531
g3
S'\xc3\xa9l'
p532
sg5
S'PP3MS000'
p533
ssS'esotra'
p534
(dp535
g3
S'esotro'
p536
sg5
S'PD0FS000'
p537
ssS'cada'
p538
(dp539
g3
S'cada'
p540
sg5
S'DI0CS0'
p541
ssS'suya'
p542
(dp543
g3
S'suyo'
p544
sg5
S'PX3FS0C0'
p545
ssS'donde'
p546
(dp547
g3
S'donde'
p548
sg5
S'PR000000'
p549
ssS'ante'
p550
(dp551
g3
S'ante'
p552
sg5
S'SPS00'
p553
ssS'nuestra'
p554
(dp555
g3
S'nuestro'
p556
sg5
S'PX1FS0P0'
p557
ssS'suyo'
p558
(dp559
g3
S'suyo'
p560
sg5
S'PX3NS0C0'
p561
ssS'u'
p562
(dp563
g3
g467
sg5
S'CC'
p564
ssS'cu\xc3\xa1ntas'
p565
(dp566
g3
S'cu\xc3\xa1nto'
p567
sg5
S'PT0FP000'
p568
ssS'unas'
p569
(dp570
g3
S'uno'
p571
sg5
S'PI0FP000'
p572
ssS't\xc3\xba'
p573
(dp574
g3
S't\xc3\xba'
p575
sg5
S'PP2CSN00'
p576
ssS'm\xc3\xada'
p577
(dp578
g3
S'm\xc3\xado'
p579
sg5
S'PX1FS0S0'
p580
ssS'los'
p581
(dp582
g3
S'lo'
p583
sg5
S'PP3MPA00'
p584
ssS'esas'
p585
(dp586
g3
S'ese'
p587
sg5
S'PD0FP000'
p588
ssS'excepto'
p589
(dp590
g3
S'excepto'
p591
sg5
S'SPS00'
p592
ssS'ustedes'
p593
(dp594
g3
S'usted'
p595
sg5
S'PP2CP00P'
p596
ssS'pero'
p597
(dp598
g3
S'pero'
p599
sg5
S'CC'
p600
ssS'salvo'
p601
(dp602
g3
S'salvo'
p603
sg5
S'SPS00'
p604
ssS'cu\xc3\xa1nta'
p605
(dp606
g3
S'cu\xc3\xa1nto'
p607
sg5
S'PT0FS000'
p608
ssS'contra'
p609
(dp610
g3
S'contra'
p611
sg5
S'SPS00'
p612
ssS'todas'
p613
(dp614
g3
S'todo'
p615
sg5
S'PI0FP000'
p616
ssS'cualquiera'
p617
(dp618
g3
S'cualquiera'
p619
sg5
S'PI0CS000'
p620
ssS'\xc3\xb3'
p621
(dp622
g3
S'\xc3\xb3'
p623
sg5
S'CC'
p624
ssS'suyos'
p625
(dp626
g3
S'suyo'
p627
sg5
S'PX3MP0C0'
p628
ssS'ora'
p629
(dp630
g3
S'ora'
p631
sg5
S'CC'
p632
ssS'esotros'
p633
(dp634
g3
S'esotro'
p635
sg5
S'PD0MP000'
p636
ssS'cu\xc3\xa1nto'
p637
(dp638
g3
S'cu\xc3\xa1nto'
p639
sg5
S'PT0MS000'
p640
ssS'demasiada'
p641
(dp642
g3
S'demasiado'
p643
sg5
S'PI0FS000'
p644
ssS'aquellos'
p645
(dp646
g3
S'aquel'
p647
sg5
S'PD0MP000'
p648
ssS'estotro'
p649
(dp650
g3
S'estotro'
p651
sg5
S'PD0MS000'
p652
ssS'ellos'
p653
(dp654
g3
S'ellos'
p655
sg5
S'PP3MP000'
p656
ssS'para'
p657
(dp658
g3
S'para'
p659
sg5
S'SPS00'
p660
ssS'estotra'
p661
(dp662
g3
S'estotro'
p663
sg5
S'PD0FS000'
p664
ssS'cu\xc3\xa1ndo'
p665
(dp666
g3
S'cu\xc3\xa1ndo'
p667
sg5
S'PT000000'
p668
ssS'cuanta'
p669
(dp670
g3
S'cuanto'
p671
sg5
S'PR0FS000'
p672
ssS'seg\xc3\xban'
p673
(dp674
g3
S'seg\xc3\xban'
p675
sg5
S'SPS00'
p676
ssS'bajo'
p677
(dp678
g3
S'bajo'
p679
sg5
S'SPS00'
p680
ssS'vuestro'
p681
(dp682
g3
S'vuestro'
p683
sg5
S'PX2NS0P0'
p684
ssS'e'
p685
(dp686
g3
S'y'
p687
sg5
S'CC'
p688
ssS'ad\xc3\xb3nde'
p689
(dp690
g3
S'ad\xc3\xb3nde'
p691
sg5
S'PT000000'
p692
ssS'empero'
p693
(dp694
g3
S'empero'
p695
sg5
S'CC'
p696
ssS'sobre'
p697
(dp698
g3
S'sobre'
p699
sg5
S'SPS00'
p700
ssS'me'
p701
(dp702
g3
S'me'
p703
sg5
S'PP1CS000'
p704
ssS'te'
p705
(dp706
g3
S'te'
p707
sg5
S'PP2CS000'
p708
ssS'mi'
p709
(dp710
g3
S'mi'
p711
sg5
S'DP1CSS'
p712
ssS'un'
p713
(dp714
g3
S'uno'
p715
sg5
S'DI0MS0'
p716
ssS'siquiera'
p717
(dp718
g3
S'siquiera'
p719
sg5
S'CC'
p720
ssS'del'
p721
(dp722
g3
S'de+el'
p723
sg5
S'SP+DA'
p724
ssS'qu\xc3\xa9'
p725
(dp726
g3
S'qu\xc3\xa9'
p727
sg5
S'PT0CN000'
p728
ssS'etc.'
p729
(dp730
g3
S'etc\xc3\xa9tera'
p731
sg5
S'Fs'
p732
ssS'usted'
p733
(dp734
g3
S'usted'
p735
sg5
S'PP2CS00P'
p736
ssS'conforme'
p737
(dp738
g3
S'conforme'
p739
sg5
S'CS'
p740
ssS'este'
p741
(dp742
g3
S'este'
p743
sg5
S'PD0MS000'
p744
ssS'\xc3\xa9sta'
p745
(dp746
g3
S'este'
p747
sg5
S'PD0FS000'
p748
ssS'esta'
p749
(dp750
g3
S'este'
p751
sg5
S'PD0FS000'
p752
ssS'sendos'
p753
(dp754
g3
S'sendos'
p755
sg5
S'DI0MP0'
p756
ssS'\xc3\xa9ste'
p757
(dp758
g3
S'este'
p759
sg5
S'PD0MS000'
p760
ssS'mismas'
p761
(dp762
g3
S'mismo'
p763
sg5
S'PI0FP000'
p764
ssS'pro'
p765
(dp766
g3
S'pro'
p767
sg5
S'SPS00'
p768
ssS'esto'
p769
(dp770
g3
S'este'
p771
sg5
S'PD0NS000'
p772
ssS'quienesquiera'
p773
(dp774
g3
S'quienquiera'
p775
sg5
S'PI0CP000'
p776
ssS'al'
p777
(dp778
g3
S'a+el'
p779
sg5
S'SP+DA'
p780
ssS'adonde'
p781
(dp782
g3
S'adonde'
p783
sg5
S'PR000000'
p784
ssS'cu\xc3\xa1ntos'
p785
(dp786
g3
S'cu\xc3\xa1nto'
p787
sg5
S'PT0MP000'
p788
ssS'tal'
p789
(dp790
g3
S'tal'
p791
sg5
S'PD0CS000'
p792
ssS'ambos'
p793
(dp794
g3
S'ambos'
p795
sg5
S'PI0MP000'
p796
ssS'ningunos'
p797
(dp798
g3
S'ninguno'
p799
sg5
S'PI0MP000'
p800
ssS'vos'
p801
(dp802
g3
S'vos'
p803
sg5
S'PP2CS00P'
p804
ssS'\xc3\xa9se'
p805
(dp806
g3
S'ese'
p807
sg5
S'PD0MS000'
p808
ssS'ave'
p809
(dp810
g3
S'ave'
p811
sg5
S'I'
p812
ssS'cualesquiera'
p813
(dp814
g3
S'cualquiera'
p815
sg5
S'PI0CP000'
p816
ssS'bastante'
p817
(dp818
g3
S'bastante'
p819
sg5
S'PI0CS000'
p820
ssS'ni'
p821
(dp822
g3
S'ni'
p823
sg5
S'CC'
p824
ssS'cuya'
p825
(dp826
g3
S'cuyo'
p827
sg5
S'PR0FS000'
p828
ssS'aqu\xc3\xa9llos'
p829
(dp830
g3
S'aquel'
p831
sg5
S'PD0MP000'
p832
ssS'medio'
p833
(dp834
g3
S'medio'
p835
sg5
S'PI0MS000'
p836
ssS'desque'
p837
(dp838
g3
S'desde+que'
p839
sg5
S'SP+CS'
p840
ssS'cuyo'
p841
(dp842
g3
S'cuyo'
p843
sg5
S'PR0MS000'
p844
ssS'aquel'
p845
(dp846
g3
S'aquel'
p847
sg5
S'PD0MS000'
p848
ssS'cualesquier'
p849
(dp850
g3
S'cualquiera'
p851
sg5
S'DI0CP0'
p852
ssS'mediante'
p853
(dp854
g3
S'mediante'
p855
sg5
S'SPS00'
p856
ssS'cual'
p857
(dp858
g3
S'cual'
p859
sg5
S'PR0CS000'
p860
ssS'nuestras'
p861
(dp862
g3
S'nuestro'
p863
sg5
S'PX1FP0P0'
p864
ssS'mis'
p865
(dp866
g3
S'mi'
p867
sg5
S'DP1CPS'
p868
ssS'varios'
p869
(dp870
g3
S'varios'
p871
sg5
S'PI0MP000'
p872
ssS'ningunas'
p873
(dp874
g3
S'ninguno'
p875
sg5
S'PI0FP000'
p876
ssS'todos'
p877
(dp878
g3
S'todo'
p879
sg5
S'PI0MP000'
p880
ssS'qui\xc3\xa9n'
p881
(dp882
g3
S'qui\xc3\xa9n'
p883
sg5
S'PT0CS000'
p884
ssS'mas'
p885
(dp886
g3
S'mas'
p887
sg5
S'CC'
p888
ssS'tuyas'
p889
(dp890
g3
S'tuyo'
p891
sg5
S'PX2FP0S0'
p892
ssS'ello'
p893
(dp894
g3
S'ello'
p895
sg5
S'PD0NS000'
p896
ssS'ella'
p897
(dp898
g3
S'\xc3\xa9l'
p899
sg5
S'PP3FS000'
p900
ssS'quien'
p901
(dp902
g3
S'quien'
p903
sg5
S'PR0CS000'
p904
ssS'aqu\xc3\xa9lla'
p905
(dp906
g3
S'aquel'
p907
sg5
S'PD0FS000'
p908
ssS'conque'
p909
(dp910
g3
S'conque'
p911
sg5
S'CS'
p912
ssS'entonces'
p913
(dp914
g3
S'entonces'
p915
sg5
S'CS'
p916
ssS'quienquiera'
p917
(dp918
g3
S'quienquiera'
p919
sg5
S'PI0CS000'
p920
ssS'tuya'
p921
(dp922
g3
S'tuyo'
p923
sg5
S'PX2FS0S0'
p924
ssS'demasiado'
p925
(dp926
g3
S'demasiado'
p927
sg5
S'PI0MS000'
p928
ssS'cualquier'
p929
(dp930
g3
S'cualquiera'
p931
sg5
S'DI0CS0'
p932
ssS'siquier'
p933
(dp934
g3
S'siquier'
p935
sg5
S'CC'
p936
ssS'qui\xc3\xa9nes'
p937
(dp938
g3
S'qui\xc3\xa9n'
p939
sg5
S'PT0CP000'
p940
ssS'etc\xc3\xa9tera'
p941
(dp942
g3
S'etc\xc3\xa9tera'
p943
sg5
S'Fs'
p944
ssS'las'
p945
(dp946
g3
S'lo'
p947
sg5
S'PP3FPA00'
p948
ssS'a'
p949
(dp950
g3
g949
sg5
S'SPS00'
p951
ssS'vuestras'
p952
(dp953
g3
S'vuestro'
p954
sg5
S'PX2FP0P0'
p955
ssS'todo'
p956
(dp957
g3
S'todo'
p958
sg5
S'PI0MS000'
p959
ssS'alguno'
p960
(dp961
g3
S'alguno'
p962
sg5
S'PI0MS000'
p963
ssS'entre'
p964
(dp965
g3
S'entre'
p966
sg5
S'SPS00'
p967
ssS'\xc3\xa1pud'
p968
(dp969
g3
S'\xc3\xa1pud'
p970
sg5
S'SPS00'
p971
ssS'sendas'
p972
(dp973
g3
S'sendos'
p974
sg5
S'DI0FP0'
p975
ssS'alguna'
p976
(dp977
g3
S'alguno'
p978
sg5
S'PI0FS000'
p979
ssS'muchos'
p980
(dp981
g3
S'mucho'
p982
sg5
S'PI0MP000'
p983
ssS'demasiados'
p984
(dp985
g3
S'demasiado'
p986
sg5
S'PI0MP000'
p987
ssS'su'
p988
(dp989
g3
S'su'
p990
sg5
S'DP3CS0'
p991
ssS'hasta'
p992
(dp993
g3
S'hasta'
p994
sg5
S'SPS00'
p995
ssS'si'
p996
(dp997
g3
S'si'
p998
sg5
S'CS'
p999
ssS'dem\xc3\xa1s'
p1000
(dp1001
g3
S'dem\xc3\xa1s'
p1002
sg5
S'PI0CP000'
p1003
ssS'so'
p1004
(dp1005
g3
S'so'
p1006
sg5
S'SPS00'
p1007
ssS'media'
p1008
(dp1009
g3
S'medio'
p1010
sg5
S'PI0FS000'
p1011
ssg687
(dp1012
g3
g687
sg5
S'CC'
p1013
ssS'sin'
p1014
(dp1015
g3
S'sin'
p1016
sg5
S'SPS00'
p1017
ssS'uno'
p1018
(dp1019
g3
S'uno'
p1020
sg5
S'PI0MS000'
p1021
ssS'tales'
p1022
(dp1023
g3
S'tal'
p1024
sg5
S'PD0CP000'
p1025
ssS'se'
p1026
(dp1027
g3
S'se'
p1028
sg5
S'PP3CN000'
p1029
ss.